target datalayout = "e-m:e-p270:32:32-p271:32:32-p272:64:64-i64:64-i128:128-f80:128-n8:16:32:64-S128"
target triple = "x86_64-pc-linux-gnu"

%"class.std::__cxx11::basic_string" = type { %"struct.std::__cxx11::basic_string<char>::_Alloc_hider", i64, %union.anon }
%"struct.std::__cxx11::basic_string<char>::_Alloc_hider" = type { ptr }
%union.anon = type { i64, [8 x i8] }
%"class.gmx::BinaryInformationSettings" = type { i8, i8, i8, i8, ptr, ptr }
%"class.std::allocator" = type { i8 }

@.str = private unnamed_addr constant [27 x i8] c"# This file was created %s\00", align 1
@_ZTISt9exception = external constant ptr
@.str.1 = private unnamed_addr constant [3 x i8] c"# \00", align 1
@.str.2 = private unnamed_addr constant [34 x i8] c"# %s is part of G R O M A C S:\0A#\0A\00", align 1
@.str.3 = private unnamed_addr constant [8 x i8] c"# %s\0A#\0A\00", align 1
@.str.4 = private unnamed_addr constant [17 x i8] c"@    title \22%s\22\0A\00", align 1
@.str.5 = private unnamed_addr constant [24 x i8] c"@    xaxis  label \22%s\22\0A\00", align 1
@.str.6 = private unnamed_addr constant [24 x i8] c"@    yaxis  label \22%s\22\0A\00", align 1
@.str.7 = private unnamed_addr constant [11 x i8] c"@TYPE nxy\0A\00", align 1
@.str.8 = private unnamed_addr constant [10 x i8] c"@TYPE xy\0A\00", align 1
@.str.9 = private unnamed_addr constant [12 x i8] c"@TYPE xydy\0A\00", align 1
@.str.10 = private unnamed_addr constant [14 x i8] c"@TYPE xydydy\0A\00", align 1
@.str.30 = private unnamed_addr constant [50 x i8] c"basic_string: construction from null is not valid\00", align 1

; Function Attrs: mustprogress nounwind uwtable
define linkonce_odr noundef i64 @_ZNSt11char_traitsIcE6lengthEPKc(ptr noundef %0) #3 comdat align 2 {
  %2 = alloca ptr, align 8
  store ptr %0, ptr %2, align 8
  %3 = load ptr, ptr %2, align 8
  %4 = call i64 @strlen(ptr noundef %3) #13
  ret i64 %4
}

; Function Attrs: mustprogress nounwind uwtable
define linkonce_odr void @_ZNSt7__cxx1112basic_stringIcSt11char_traitsIcESaIcEE12_Alloc_hiderD2Ev(ptr noundef nonnull align 8 dereferenceable(8) %0) unnamed_addr #3 comdat align 2 {
  %2 = alloca ptr, align 8
  store ptr %0, ptr %2, align 8
  %3 = load ptr, ptr %2, align 8
  call void @_ZNSaIcED2Ev(ptr noundef nonnull align 1 dereferenceable(1) %3) #13
  ret void
}

; Function Attrs: mustprogress uwtable
define linkonce_odr void @_ZNSt7__cxx1112basic_stringIcSt11char_traitsIcESaIcEEC2IS3_EEPKcRKS3_(ptr noundef nonnull align 8 dereferenceable(32) %0, ptr noundef %1, ptr noundef nonnull align 1 dereferenceable(1) %2) unnamed_addr #0 comdat align 2 personality ptr @__gxx_personality_v0 {
  %4 = alloca ptr, align 8
  %5 = alloca ptr, align 8
  %6 = alloca ptr, align 8
  %7 = alloca ptr, align 8
  %8 = alloca i32, align 4
  %9 = alloca ptr, align 8
  store ptr %0, ptr %4, align 8
  store ptr %1, ptr %5, align 8
  store ptr %2, ptr %6, align 8
  %10 = load ptr, ptr %4, align 8
  %11 = getelementptr inbounds %"class.std::__cxx11::basic_string", ptr %10, i32 0, i32 0
  %12 = call noundef ptr @_ZNSt7__cxx1112basic_stringIcSt11char_traitsIcESaIcEE13_M_local_dataEv(ptr noundef nonnull align 8 dereferenceable(32) %10)
  %13 = load ptr, ptr %6, align 8
  call void @_ZNSt7__cxx1112basic_stringIcSt11char_traitsIcESaIcEE12_Alloc_hiderC1EPcRKS3_(ptr noundef nonnull align 8 dereferenceable(8) %11, ptr noundef %12, ptr noundef nonnull align 1 dereferenceable(1) %13)
  %14 = load ptr, ptr %5, align 8
  %15 = icmp eq ptr %14, null
  br i1 %15, label %16, label %22

16:                                               ; preds = %3
  invoke void @_ZSt19__throw_logic_errorPKc(ptr noundef @.str.30) #14
          to label %17 unwind label %18

17:                                               ; preds = %16
  unreachable

18:                                               ; preds = %22, %16
  %19 = landingpad { ptr, i32 }
          cleanup
  %20 = extractvalue { ptr, i32 } %19, 0
  store ptr %20, ptr %7, align 8
  %21 = extractvalue { ptr, i32 } %19, 1
  store i32 %21, ptr %8, align 4
  call void @_ZNSt7__cxx1112basic_stringIcSt11char_traitsIcESaIcEE12_Alloc_hiderD2Ev(ptr noundef nonnull align 8 dereferenceable(8) %11) #13
  br label %30

22:                                               ; preds = %3
  %23 = load ptr, ptr %5, align 8
  %24 = load ptr, ptr %5, align 8
  %25 = call noundef i64 @_ZNSt11char_traitsIcE6lengthEPKc(ptr noundef %24)
  %26 = getelementptr inbounds i8, ptr %23, i64 %25
  store ptr %26, ptr %9, align 8
  %27 = load ptr, ptr %5, align 8
  %28 = load ptr, ptr %9, align 8
  invoke void @_ZNSt7__cxx1112basic_stringIcSt11char_traitsIcESaIcEE12_M_constructIPKcEEvT_S8_St20forward_iterator_tag(ptr noundef nonnull align 8 dereferenceable(32) %10, ptr noundef %27, ptr noundef %28)
          to label %29 unwind label %18

29:                                               ; preds = %22
  ret void

30:                                               ; preds = %18
  %31 = load ptr, ptr %7, align 8
  %32 = load i32, ptr %8, align 4
  %33 = insertvalue { ptr, i32 } poison, ptr %31, 0
  %34 = insertvalue { ptr, i32 } %33, i32 %32, 1
  resume { ptr, i32 } %34
}

; Function Attrs: mustprogress nounwind uwtable
define linkonce_odr noundef nonnull align 8 dereferenceable(24) ptr @_ZN3gmx25BinaryInformationSettings10linePrefixEPKc(ptr noundef nonnull align 8 dereferenceable(24) %0, ptr noundef %1) #3 comdat align 2 {
  %3 = alloca ptr, align 8
  %4 = alloca ptr, align 8
  store ptr %0, ptr %3, align 8
  store ptr %1, ptr %4, align 8
  %5 = load ptr, ptr %3, align 8
  %6 = load ptr, ptr %4, align 8
  %7 = getelementptr inbounds %"class.gmx::BinaryInformationSettings", ptr %5, i32 0, i32 4
  store ptr %6, ptr %7, align 8
  ret ptr %5
}

; Function Attrs: mustprogress nounwind uwtable
define linkonce_odr noundef nonnull align 8 dereferenceable(24) ptr @_ZN3gmx25BinaryInformationSettings17generatedByHeaderEb(ptr noundef nonnull align 8 dereferenceable(24) %0, i1 noundef zeroext %1) #3 comdat align 2 {
  %3 = alloca ptr, align 8
  %4 = alloca i8, align 1
  store ptr %0, ptr %3, align 8
  %5 = zext i1 %1 to i8
  store i8 %5, ptr %4, align 1
  %6 = load ptr, ptr %3, align 8
  %7 = load i8, ptr %4, align 1
  %8 = trunc i8 %7 to i1
  %9 = getelementptr inbounds %"class.gmx::BinaryInformationSettings", ptr %6, i32 0, i32 3
  %10 = zext i1 %8 to i8
  store i8 %10, ptr %9, align 1
  ret ptr %6
}

; Function Attrs: mustprogress uwtable
define noundef zeroext i1 @_Z31output_env_get_print_xvgr_codesPK16gmx_output_env_t(ptr noundef %0) #0 {
  %2 = alloca ptr, align 8
  %3 = alloca i32, align 4
  store ptr %0, ptr %2, align 8
  %4 = load ptr, ptr %2, align 8
  %5 = call noundef i32 @_Z25output_env_get_xvg_formatPK16gmx_output_env_t(ptr noundef %4)
  store i32 %5, ptr %3, align 4
  %6 = load i32, ptr %3, align 4
  %7 = icmp eq i32 %6, 0
  br i1 %7, label %11, label %8

8:                                                ; preds = %1
  %9 = load i32, ptr %3, align 4
  %10 = icmp eq i32 %9, 1
  br label %11

11:                                               ; preds = %8, %1
  %12 = phi i1 [ true, %1 ], [ %10, %8 ]
  ret i1 %12
}

; Function Attrs: mustprogress uwtable
define void @_Z11xvgr_headerP8_IO_FILEPKcRKNSt7__cxx1112basic_stringIcSt11char_traitsIcESaIcEEESA_iPK16gmx_output_env_t(ptr noundef %0, ptr noundef %1, ptr noundef nonnull align 8 dereferenceable(32) %2, ptr noundef nonnull align 8 dereferenceable(32) %3, i32 noundef %4, ptr noundef %5) #0 personality ptr @__gxx_personality_v0 {
  %7 = alloca ptr, align 8
  %8 = alloca ptr, align 8
  %9 = alloca ptr, align 8
  %10 = alloca ptr, align 8
  %11 = alloca i32, align 4
  %12 = alloca ptr, align 8
  %13 = alloca [4096 x i8], align 16
  %14 = alloca %"class.std::__cxx11::basic_string", align 8
  %15 = alloca %"class.gmx::BinaryInformationSettings", align 8
  %16 = alloca ptr, align 8
  %17 = alloca i32, align 4
  %18 = alloca ptr, align 8
  %19 = alloca %"class.std::__cxx11::basic_string", align 8
  %20 = alloca %"class.std::__cxx11::basic_string", align 8
  %21 = alloca %"class.std::allocator", align 1
  store ptr %0, ptr %7, align 8
  store ptr %1, ptr %8, align 8
  store ptr %2, ptr %9, align 8
  store ptr %3, ptr %10, align 8
  store i32 %4, ptr %11, align 4
  store ptr %5, ptr %12, align 8
  %22 = load ptr, ptr %12, align 8
  %23 = call noundef zeroext i1 @_Z31output_env_get_print_xvgr_codesPK16gmx_output_env_t(ptr noundef %22)
  br i1 %23, label %24, label %112

24:                                               ; preds = %6
  %25 = load ptr, ptr %7, align 8
  call void @_Z23gmx_format_current_timeB5cxx11v(ptr dead_on_unwind writable sret(%"class.std::__cxx11::basic_string") align 8 %14)
  %26 = call noundef ptr @_ZNKSt7__cxx1112basic_stringIcSt11char_traitsIcESaIcEE5c_strEv(ptr noundef nonnull align 8 dereferenceable(32) %14) #13
  %27 = call i32 (ptr, ptr, ...) @fprintf(ptr noundef %25, ptr noundef @.str, ptr noundef %26) #13
  call void @_ZNSt7__cxx1112basic_stringIcSt11char_traitsIcESaIcEED1Ev(ptr noundef nonnull align 8 dereferenceable(32) %14) #13
  invoke void @_ZN3gmx25BinaryInformationSettingsC1Ev(ptr noundef nonnull align 8 dereferenceable(24) %15)
          to label %28 unwind label %38

28:                                               ; preds = %24
  %29 = invoke noundef nonnull align 8 dereferenceable(24) ptr @_ZN3gmx25BinaryInformationSettings17generatedByHeaderEb(ptr noundef nonnull align 8 dereferenceable(24) %15, i1 noundef zeroext true)
          to label %30 unwind label %38

30:                                               ; preds = %28
  %31 = invoke noundef nonnull align 8 dereferenceable(24) ptr @_ZN3gmx25BinaryInformationSettings10linePrefixEPKc(ptr noundef nonnull align 8 dereferenceable(24) %15, ptr noundef @.str.1)
          to label %32 unwind label %38

32:                                               ; preds = %30
  %33 = load ptr, ptr %7, align 8
  %34 = load ptr, ptr %12, align 8
  %35 = invoke noundef nonnull align 1 ptr @_Z30output_env_get_program_contextPK16gmx_output_env_t(ptr noundef %34)
          to label %36 unwind label %38

36:                                               ; preds = %32
  invoke void @_ZN3gmx22printBinaryInformationEP8_IO_FILERKNS_15IProgramContextERKNS_25BinaryInformationSettingsE(ptr noundef %33, ptr noundef nonnull align 1 %35, ptr noundef nonnull align 8 dereferenceable(24) %15)
          to label %37 unwind label %38

37:                                               ; preds = %36
  br label %56

38:                                               ; preds = %36, %32, %30, %28, %24
  %39 = landingpad { ptr, i32 }
          catch ptr @_ZTISt9exception
  %40 = extractvalue { ptr, i32 } %39, 0
  store ptr %40, ptr %16, align 8
  %41 = extractvalue { ptr, i32 } %39, 1
  store i32 %41, ptr %17, align 4
  br label %42

42:                                               ; preds = %38
  %43 = load i32, ptr %17, align 4
  %44 = call i32 @llvm.eh.typeid.for(ptr @_ZTISt9exception) #13
  %45 = icmp eq i32 %43, %44
  br i1 %45, label %46, label %113

46:                                               ; preds = %42
  %47 = load ptr, ptr %16, align 8
  %48 = call ptr @__cxa_begin_catch(ptr %47) #13
  store ptr %48, ptr %18, align 8
  %49 = load ptr, ptr %18, align 8
  invoke void @_ZN3gmx28processExceptionAsFatalErrorERKSt9exception(ptr noundef nonnull align 8 dereferenceable(8) %49) #14
          to label %50 unwind label %51

50:                                               ; preds = %46
  unreachable

51:                                               ; preds = %46
  %52 = landingpad { ptr, i32 }
          cleanup
  %53 = extractvalue { ptr, i32 } %52, 0
  store ptr %53, ptr %16, align 8
  %54 = extractvalue { ptr, i32 } %52, 1
  store i32 %54, ptr %17, align 4
  invoke void @__cxa_end_catch()
          to label %55 unwind label %118

55:                                               ; preds = %51
  br label %113

56:                                               ; preds = %37
  %57 = load ptr, ptr %7, align 8
  %58 = load ptr, ptr %12, align 8
  %59 = call noundef ptr @_Z35output_env_get_program_display_namePK16gmx_output_env_t(ptr noundef %58)
  %60 = call i32 (ptr, ptr, ...) @fprintf(ptr noundef %57, ptr noundef @.str.2, ptr noundef %59) #13
  %61 = load ptr, ptr %7, align 8
  call void @_ZN3gmx7bromacsB5cxx11Ev(ptr dead_on_unwind writable sret(%"class.std::__cxx11::basic_string") align 8 %19)
  %62 = call noundef ptr @_ZNKSt7__cxx1112basic_stringIcSt11char_traitsIcESaIcEE5c_strEv(ptr noundef nonnull align 8 dereferenceable(32) %19) #13
  %63 = call i32 (ptr, ptr, ...) @fprintf(ptr noundef %61, ptr noundef @.str.3, ptr noundef %62) #13
  call void @_ZNSt7__cxx1112basic_stringIcSt11char_traitsIcESaIcEED1Ev(ptr noundef nonnull align 8 dereferenceable(32) %19) #13
  %64 = load ptr, ptr %7, align 8
  %65 = load ptr, ptr %8, align 8
  call void @_ZNSaIcEC1Ev(ptr noundef nonnull align 1 dereferenceable(1) %21) #13
  invoke void @_ZNSt7__cxx1112basic_stringIcSt11char_traitsIcESaIcEEC2IS3_EEPKcRKS3_(ptr noundef nonnull align 8 dereferenceable(32) %20, ptr noundef %65, ptr noundef nonnull align 1 dereferenceable(1) %21)
          to label %66 unwind label %85

66:                                               ; preds = %56
  %67 = load ptr, ptr %12, align 8
  %68 = getelementptr inbounds [4096 x i8], ptr %13, i64 0, i64 0
  %69 = invoke noundef ptr @_ZL7xvgrstrRKNSt7__cxx1112basic_stringIcSt11char_traitsIcESaIcEEEPK16gmx_output_env_tPci(ptr noundef nonnull align 8 dereferenceable(32) %20, ptr noundef %67, ptr noundef %68, i32 noundef 4096)
          to label %70 unwind label %89

70:                                               ; preds = %66
  %71 = call i32 (ptr, ptr, ...) @fprintf(ptr noundef %64, ptr noundef @.str.4, ptr noundef %69) #13
  call void @_ZNSt7__cxx1112basic_stringIcSt11char_traitsIcESaIcEED1Ev(ptr noundef nonnull align 8 dereferenceable(32) %20) #13
  call void @_ZNSaIcED1Ev(ptr noundef nonnull align 1 dereferenceable(1) %21) #13
  %72 = load ptr, ptr %7, align 8
  %73 = load ptr, ptr %9, align 8
  %74 = load ptr, ptr %12, align 8
  %75 = getelementptr inbounds [4096 x i8], ptr %13, i64 0, i64 0
  %76 = call noundef ptr @_ZL7xvgrstrRKNSt7__cxx1112basic_stringIcSt11char_traitsIcESaIcEEEPK16gmx_output_env_tPci(ptr noundef nonnull align 8 dereferenceable(32) %73, ptr noundef %74, ptr noundef %75, i32 noundef 4096)
  %77 = call i32 (ptr, ptr, ...) @fprintf(ptr noundef %72, ptr noundef @.str.5, ptr noundef %76) #13
  %78 = load ptr, ptr %7, align 8
  %79 = load ptr, ptr %10, align 8
  %80 = load ptr, ptr %12, align 8
  %81 = getelementptr inbounds [4096 x i8], ptr %13, i64 0, i64 0
  %82 = call noundef ptr @_ZL7xvgrstrRKNSt7__cxx1112basic_stringIcSt11char_traitsIcESaIcEEEPK16gmx_output_env_tPci(ptr noundef nonnull align 8 dereferenceable(32) %79, ptr noundef %80, ptr noundef %81, i32 noundef 4096)
  %83 = call i32 (ptr, ptr, ...) @fprintf(ptr noundef %78, ptr noundef @.str.6, ptr noundef %82) #13
  %84 = load i32, ptr %11, align 4
  switch i32 %84, label %111 [
    i32 1, label %94
    i32 2, label %105
    i32 3, label %108
  ]

85:                                               ; preds = %56
  %86 = landingpad { ptr, i32 }
          cleanup
  %87 = extractvalue { ptr, i32 } %86, 0
  store ptr %87, ptr %16, align 8
  %88 = extractvalue { ptr, i32 } %86, 1
  store i32 %88, ptr %17, align 4
  br label %93

89:                                               ; preds = %66
  %90 = landingpad { ptr, i32 }
          cleanup
  %91 = extractvalue { ptr, i32 } %90, 0
  store ptr %91, ptr %16, align 8
  %92 = extractvalue { ptr, i32 } %90, 1
  store i32 %92, ptr %17, align 4
  call void @_ZNSt7__cxx1112basic_stringIcSt11char_traitsIcESaIcEED1Ev(ptr noundef nonnull align 8 dereferenceable(32) %20) #13
  br label %93

93:                                               ; preds = %89, %85
  call void @_ZNSaIcED1Ev(ptr noundef nonnull align 1 dereferenceable(1) %21) #13
  br label %113

94:                                               ; preds = %70
  %95 = load ptr, ptr %12, align 8
  %96 = call noundef i32 @_Z25output_env_get_xvg_formatPK16gmx_output_env_t(ptr noundef %95)
  %97 = icmp eq i32 %96, 1
  br i1 %97, label %98, label %101

98:                                               ; preds = %94
  %99 = load ptr, ptr %7, align 8
  %100 = call i32 (ptr, ptr, ...) @fprintf(ptr noundef %99, ptr noundef @.str.7) #13
  br label %104

101:                                              ; preds = %94
  %102 = load ptr, ptr %7, align 8
  %103 = call i32 (ptr, ptr, ...) @fprintf(ptr noundef %102, ptr noundef @.str.8) #13
  br label %104

104:                                              ; preds = %101, %98
  br label %111

105:                                              ; preds = %70
  %106 = load ptr, ptr %7, align 8
  %107 = call i32 (ptr, ptr, ...) @fprintf(ptr noundef %106, ptr noundef @.str.9) #13
  br label %111

108:                                              ; preds = %70
  %109 = load ptr, ptr %7, align 8
  %110 = call i32 (ptr, ptr, ...) @fprintf(ptr noundef %109, ptr noundef @.str.10) #13
  br label %111

111:                                              ; preds = %108, %105, %104, %70
  br label %112

112:                                              ; preds = %111, %6
  ret void

113:                                              ; preds = %93, %55, %42
  %114 = load ptr, ptr %16, align 8
  %115 = load i32, ptr %17, align 4
  %116 = insertvalue { ptr, i32 } poison, ptr %114, 0
  %117 = insertvalue { ptr, i32 } %116, i32 %115, 1
  resume { ptr, i32 } %117

118:                                              ; preds = %51
  %119 = landingpad { ptr, i32 }
          catch ptr null
  %120 = extractvalue { ptr, i32 } %119, 0
  call void @__clang_call_terminate(ptr %120) #15
  unreachable
}