; Function Attrs: mustprogress uwtable
define void @_Z11xvgr_headerP8_IO_FILEPKcRKNSt7__cxx1112basic_stringIcSt11char_traitsIcESaIcEEESA_iPK16gmx_output_env_t(ptr noundef %0, ptr noundef %1, ptr noundef nonnull align 8 dereferenceable(32) %2, ptr noundef nonnull align 8 dereferenceable(32) %3, i32 noundef %4, ptr noundef %5) local_unnamed_addr #0 personality ptr @__gxx_personality_v0 {
  %7 = alloca [4096 x i8], align 16
  %8 = alloca %"class.std::__cxx11::basic_string", align 8
  %9 = alloca %"class.gmx::BinaryInformationSettings", align 8
  %10 = alloca %"class.std::__cxx11::basic_string", align 8
  %11 = alloca %"class.std::__cxx11::basic_string", align 8
  %12 = alloca %"class.std::allocator", align 1
  %13 = tail call noundef i32 @_Z25output_env_get_xvg_formatPK16gmx_output_env_t(ptr noundef %5)
  %14 = icmp ult i32 %13, 2
  br i1 %14, label %15, label %70

15:                                               ; preds = %6
  call void @_Z23gmx_format_current_timeB5cxx11v(ptr dead_on_unwind nonnull writable sret(%"class.std::__cxx11::basic_string") align 8 %8)
  %16 = call noundef ptr @_ZNKSt7__cxx1112basic_stringIcSt11char_traitsIcESaIcEE5c_strEv(ptr noundef nonnull align 8 dereferenceable(32) %8) #20
  %17 = call i32 (ptr, ptr, ...) @fprintf(ptr noundef %0, ptr noundef nonnull @.str, ptr noundef %16) #20
  call void @_ZNSt7__cxx1112basic_stringIcSt11char_traitsIcESaIcEED1Ev(ptr noundef nonnull align 8 dereferenceable(32) %8) #20
  invoke void @_ZN3gmx25BinaryInformationSettingsC1Ev(ptr noundef nonnull align 8 dereferenceable(24) %9)
          to label %18 unwind label %23

18:                                               ; preds = %15
  %19 = getelementptr inbounds i8, ptr %9, i64 3
  store i8 1, ptr %19, align 1
  %20 = getelementptr inbounds i8, ptr %9, i64 8
  store ptr @.str.1, ptr %20, align 8
  %21 = invoke noundef nonnull align 1 ptr @_Z30output_env_get_program_contextPK16gmx_output_env_t(ptr noundef %5)
          to label %22 unwind label %23

22:                                               ; preds = %18
  invoke void @_ZN3gmx22printBinaryInformationEP8_IO_FILERKNS_15IProgramContextERKNS_25BinaryInformationSettingsE(ptr noundef %0, ptr noundef nonnull align 1 %21, ptr noundef nonnull align 8 dereferenceable(24) %9)
          to label %34 unwind label %23

23:                                               ; preds = %22, %18, %15
  %24 = landingpad { ptr, i32 }
          catch ptr @_ZTISt9exception
  %25 = extractvalue { ptr, i32 } %24, 1
  %26 = call i32 @llvm.eh.typeid.for(ptr nonnull @_ZTISt9exception) #20
  %27 = icmp eq i32 %25, %26
  br i1 %27, label %28, label %71

28:                                               ; preds = %23
  %29 = extractvalue { ptr, i32 } %24, 0
  %30 = call ptr @__cxa_begin_catch(ptr %29) #20
  invoke void @_ZN3gmx28processExceptionAsFatalErrorERKSt9exception(ptr noundef nonnull align 8 dereferenceable(8) %30) #21
          to label %31 unwind label %32

31:                                               ; preds = %28
  unreachable

32:                                               ; preds = %28
  %33 = landingpad { ptr, i32 }
          cleanup
  invoke void @__cxa_end_catch()
          to label %71 unwind label %72

34:                                               ; preds = %22
  %35 = call noundef ptr @_Z35output_env_get_program_display_namePK16gmx_output_env_t(ptr noundef %5)
  %36 = call i32 (ptr, ptr, ...) @fprintf(ptr noundef %0, ptr noundef nonnull @.str.2, ptr noundef %35) #20
  call void @_ZN3gmx7bromacsB5cxx11Ev(ptr dead_on_unwind nonnull writable sret(%"class.std::__cxx11::basic_string") align 8 %10)
  %37 = call noundef ptr @_ZNKSt7__cxx1112basic_stringIcSt11char_traitsIcESaIcEE5c_strEv(ptr noundef nonnull align 8 dereferenceable(32) %10) #20
  %38 = call i32 (ptr, ptr, ...) @fprintf(ptr noundef %0, ptr noundef nonnull @.str.3, ptr noundef %37) #20
  call void @_ZNSt7__cxx1112basic_stringIcSt11char_traitsIcESaIcEED1Ev(ptr noundef nonnull align 8 dereferenceable(32) %10) #20
  call void @_ZNSaIcEC1Ev(ptr noundef nonnull align 1 dereferenceable(1) %12) #20
  %39 = invoke noundef ptr @_ZNSt7__cxx1112basic_stringIcSt11char_traitsIcESaIcEE13_M_local_dataEv(ptr noundef nonnull align 8 dereferenceable(32) %11)
          to label %.noexc unwind label %55

.noexc:                                           ; preds = %34
  invoke void @_ZNSt7__cxx1112basic_stringIcSt11char_traitsIcESaIcEE12_Alloc_hiderC1EPcRKS3_(ptr noundef nonnull align 8 dereferenceable(8) %11, ptr noundef %39, ptr noundef nonnull align 1 dereferenceable(1) %12)
          to label %.noexc30 unwind label %55

.noexc30:                                         ; preds = %.noexc
  %40 = icmp eq ptr %1, null
  br i1 %40, label %41, label %45

41:                                               ; preds = %.noexc30
  invoke void @_ZSt19__throw_logic_errorPKc(ptr noundef nonnull @.str.30) #21
          to label %42 unwind label %43

42:                                               ; preds = %41
  unreachable

43:                                               ; preds = %45, %41
  %44 = landingpad { ptr, i32 }
          cleanup
  call void @_ZNSaIcED2Ev(ptr noundef nonnull align 1 dereferenceable(1) %11) #20
  br label %.body

45:                                               ; preds = %.noexc30
  %46 = call noundef i64 @strlen(ptr noundef nonnull dereferenceable(1) %1) #20
  %47 = getelementptr inbounds i8, ptr %1, i64 %46
  invoke void @_ZNSt7__cxx1112basic_stringIcSt11char_traitsIcESaIcEE12_M_constructIPKcEEvT_S8_St20forward_iterator_tag(ptr noundef nonnull align 8 dereferenceable(32) %11, ptr noundef nonnull %1, ptr noundef nonnull %47)
          to label %_ZNSt7__cxx1112basic_stringIcSt11char_traitsIcESaIcEEC2IS3_EEPKcRKS3_.exit unwind label %43

_ZNSt7__cxx1112basic_stringIcSt11char_traitsIcESaIcEEC2IS3_EEPKcRKS3_.exit: ; preds = %45
  %48 = invoke fastcc noundef ptr @_ZL7xvgrstrRKNSt7__cxx1112basic_stringIcSt11char_traitsIcESaIcEEEPK16gmx_output_env_tPci(ptr noundef nonnull align 8 dereferenceable(32) %11, ptr noundef %5, ptr noundef nonnull %7)
          to label %49 unwind label %57

49:                                               ; preds = %_ZNSt7__cxx1112basic_stringIcSt11char_traitsIcESaIcEEC2IS3_EEPKcRKS3_.exit
  %50 = call i32 (ptr, ptr, ...) @fprintf(ptr noundef %0, ptr noundef nonnull @.str.4, ptr noundef nonnull %7) #20
  call void @_ZNSt7__cxx1112basic_stringIcSt11char_traitsIcESaIcEED1Ev(ptr noundef nonnull align 8 dereferenceable(32) %11) #20
  call void @_ZNSaIcED1Ev(ptr noundef nonnull align 1 dereferenceable(1) %12) #20
  %51 = call fastcc noundef ptr @_ZL7xvgrstrRKNSt7__cxx1112basic_stringIcSt11char_traitsIcESaIcEEEPK16gmx_output_env_tPci(ptr noundef nonnull align 8 dereferenceable(32) %2, ptr noundef %5, ptr noundef nonnull %7)
  %52 = call i32 (ptr, ptr, ...) @fprintf(ptr noundef %0, ptr noundef nonnull @.str.5, ptr noundef nonnull %7) #20
  %53 = call fastcc noundef ptr @_ZL7xvgrstrRKNSt7__cxx1112basic_stringIcSt11char_traitsIcESaIcEEEPK16gmx_output_env_tPci(ptr noundef nonnull align 8 dereferenceable(32) %3, ptr noundef %5, ptr noundef nonnull %7)
  %54 = call i32 (ptr, ptr, ...) @fprintf(ptr noundef %0, ptr noundef nonnull @.str.6, ptr noundef nonnull %7) #20
  switch i32 %4, label %70 [
    i32 1, label %59
    i32 2, label %66
    i32 3, label %68
  ]

55:                                               ; preds = %.noexc, %34
  %56 = landingpad { ptr, i32 }
          cleanup
  br label %.body

57:                                               ; preds = %_ZNSt7__cxx1112basic_stringIcSt11char_traitsIcESaIcEEC2IS3_EEPKcRKS3_.exit
  %58 = landingpad { ptr, i32 }
          cleanup
  call void @_ZNSt7__cxx1112basic_stringIcSt11char_traitsIcESaIcEED1Ev(ptr noundef nonnull align 8 dereferenceable(32) %11) #20
  br label %.body

.body:                                            ; preds = %55, %43, %57
  %.pn = phi { ptr, i32 } [ %58, %57 ], [ %56, %55 ], [ %44, %43 ]
  call void @_ZNSaIcED1Ev(ptr noundef nonnull align 1 dereferenceable(1) %12) #20
  br label %71

59:                                               ; preds = %49
  %60 = call noundef i32 @_Z25output_env_get_xvg_formatPK16gmx_output_env_t(ptr noundef %5)
  %61 = icmp eq i32 %60, 1
  br i1 %61, label %62, label %64

62:                                               ; preds = %59
  %63 = call i64 @fwrite(ptr nonnull @.str.7, i64 10, i64 1, ptr %0)
  br label %70

64:                                               ; preds = %59
  %65 = call i64 @fwrite(ptr nonnull @.str.8, i64 9, i64 1, ptr %0)
  br label %70

66:                                               ; preds = %49
  %67 = call i64 @fwrite(ptr nonnull @.str.9, i64 11, i64 1, ptr %0)
  br label %70

68:                                               ; preds = %49
  %69 = call i64 @fwrite(ptr nonnull @.str.10, i64 13, i64 1, ptr %0)
  br label %70

70:                                               ; preds = %49, %66, %68, %64, %62, %6
  ret void

71:                                               ; preds = %32, %.body, %23
  %.merged = phi { ptr, i32 } [ %.pn, %.body ], [ %33, %32 ], [ %24, %23 ]
  resume { ptr, i32 } %.merged

72:                                               ; preds = %32
  %73 = landingpad { ptr, i32 }
          catch ptr null
  %74 = extractvalue { ptr, i32 } %73, 0
  call void @__clang_call_terminate(ptr %74) #22
  unreachable
}